target datalayout = "e-m:e-p270:32:32-p271:32:32-p272:64:64-i64:64-i128:128-f80:128-n8:16:32:64-S128"
target triple = "x86_64-pc-linux-gnu"

%struct._packet_info = type { ptr, ptr, i32, i32, %struct.nstime_t, %struct.nstime_t, %struct.nstime_t, i32, ptr, ptr, ptr, ptr, %struct._address, %struct._address, %struct._address, %struct._address, %struct._address, %struct._address, i32, ptr, i32, %struct.anon, i32, i32, i32, i32, ptr, i32, ptr, ptr, i16, i16, i32, i32, i16, i32, i32, ptr, ptr, ptr, i8, i8, i16, i16, i16, i32, i16, i16, ptr, ptr, ptr, ptr, ptr, i32 }
%struct.nstime_t = type { i64, i32 }
%struct._address = type { i32, i32, ptr, ptr }
%struct.anon = type { i8, [3 x i8] }

@wow_preference_desegment = internal global i32 1, align 4

; Function Attrs: nounwind uwtable
define internal i32 @dissect_wow(ptr noundef %0, ptr noundef %1, ptr noundef %2, ptr noundef %3) #0 {
  %5 = alloca ptr, align 8
  %6 = alloca ptr, align 8
  %7 = alloca ptr, align 8
  %8 = alloca ptr, align 8
  %9 = alloca i8, align 1
  %10 = alloca i8, align 1
  store ptr %0, ptr %5, align 8
  store ptr %1, ptr %6, align 8
  store ptr %2, ptr %7, align 8
  store ptr %3, ptr %8, align 8
  store i8 -1, ptr %9, align 1
  %11 = load ptr, ptr %5, align 8
  %12 = call zeroext i8 @tvb_get_guint8(ptr noundef %11, i32 noundef 0)
  store i8 %12, ptr %10, align 1
  %13 = load ptr, ptr %6, align 8
  %14 = getelementptr inbounds %struct._packet_info, ptr %13, i32 0, i32 23
  %15 = load i32, ptr %14, align 4
  %16 = icmp eq i32 %15, 3724
  br i1 %16, label %17, label %22

17:                                               ; preds = %4
  %18 = load i8, ptr %10, align 1
  %19 = zext i8 %18 to i32
  %20 = icmp eq i32 %19, 16
  br i1 %20, label %21, label %22

21:                                               ; preds = %17
  store i8 1, ptr %9, align 1
  br label %22

22:                                               ; preds = %21, %17, %4
  %23 = load ptr, ptr %6, align 8
  %24 = getelementptr inbounds %struct._packet_info, ptr %23, i32 0, i32 24
  %25 = load i32, ptr %24, align 8
  %26 = icmp eq i32 %25, 3724
  br i1 %26, label %27, label %32

27:                                               ; preds = %22
  %28 = load i8, ptr %10, align 1
  %29 = zext i8 %28 to i32
  %30 = icmp eq i32 %29, 0
  br i1 %30, label %31, label %32

31:                                               ; preds = %27
  store i8 2, ptr %9, align 1
  br label %32

32:                                               ; preds = %31, %27, %22
  %33 = load i8, ptr %9, align 1
  %34 = sext i8 %33 to i32
  %35 = icmp sgt i32 %34, -1
  br i1 %35, label %36, label %45

36:                                               ; preds = %32
  %37 = load ptr, ptr %5, align 8
  %38 = load ptr, ptr %6, align 8
  %39 = load ptr, ptr %7, align 8
  %40 = load i32, ptr @wow_preference_desegment, align 4
  %41 = load i8, ptr %9, align 1
  %42 = sext i8 %41 to i32
  %43 = add i32 %42, 2
  %44 = load ptr, ptr %8, align 8
  call void @tcp_dissect_pdus(ptr noundef %37, ptr noundef %38, ptr noundef %39, i32 noundef %40, i32 noundef %43, ptr noundef @get_wow_pdu_len, ptr noundef @dissect_wow_pdu, ptr noundef %44)
  br label %51

45:                                               ; preds = %32
  %46 = load ptr, ptr %5, align 8
  %47 = load ptr, ptr %6, align 8
  %48 = load ptr, ptr %7, align 8
  %49 = load ptr, ptr %8, align 8
  %50 = call i32 @dissect_wow_pdu(ptr noundef %46, ptr noundef %47, ptr noundef %48, ptr noundef %49)
  br label %51

51:                                               ; preds = %45, %36
  ret i32 1
}