; Function Attrs: nounwind uwtable
define internal noundef i32 @dissect_wow(ptr noundef %0, ptr noundef %1, ptr noundef %2, ptr noundef %3) #0 {
  %5 = tail call zeroext i8 @tvb_get_guint8(ptr noundef %0, i32 noundef 0) #3
  %6 = getelementptr inbounds nuw i8, ptr %1, i64 284
  %7 = load i32, ptr %6, align 4
  %8 = icmp eq i32 %7, 3724
  %9 = icmp eq i8 %5, 16
  %or.cond = select i1 %8, i1 %9, i1 false
  %10 = getelementptr inbounds nuw i8, ptr %1, i64 288
  %11 = load i32, ptr %10, align 8
  %12 = icmp eq i32 %11, 3724
  %13 = icmp eq i8 %5, 0
  %or.cond5 = select i1 %12, i1 %13, i1 false
  %14 = select i1 %or.cond5, i1 true, i1 %or.cond
  br i1 %14, label %15, label %19

15:                                               ; preds = %4
  %16 = load i32, ptr @wow_preference_desegment, align 4
  %17 = select i1 %or.cond, i32 3, i32 1
  %18 = select i1 %or.cond5, i32 4, i32 %17
  tail call void @tcp_dissect_pdus(ptr noundef %0, ptr noundef nonnull %1, ptr noundef %2, i32 noundef %16, i32 noundef %18, ptr noundef nonnull @get_wow_pdu_len, ptr noundef nonnull @dissect_wow_pdu, ptr noundef %3) #3
  br label %21

19:                                               ; preds = %4
  %20 = tail call i32 @dissect_wow_pdu(ptr noundef %0, ptr noundef nonnull %1, ptr noundef %2, ptr poison)
  br label %21

21:                                               ; preds = %19, %15
  ret i32 1
}